; Function Attrs: mustprogress uwtable
define void @_ZN7rocksdb15NewCompositeEnvERKSt10shared_ptrINS_10FileSystemEE(ptr dead_on_unwind noalias writable writeonly sret(%"class.std::unique_ptr.127") align 8 captures(none) %0, ptr noundef nonnull align 8 dereferenceable(16) %1) local_unnamed_addr #0 personality ptr @__gxx_personality_v0 {
  %3 = tail call noalias noundef nonnull dereferenceable(96) ptr @_Znwm(i64 noundef 96) #26
  %4 = invoke noundef ptr @_ZN7rocksdb3Env7DefaultEv()
          to label %5 unwind label %7

5:                                                ; preds = %2
  %6 = invoke noundef nonnull align 8 dereferenceable(16) ptr @_ZNK7rocksdb3Env14GetSystemClockEv(ptr noundef nonnull align 8 dereferenceable(72) %4)
          to label %.noexc unwind label %7

.noexc:                                           ; preds = %5
  invoke void @_ZN7rocksdb19CompositeEnvWrapperC2EPNS_3EnvERKSt10shared_ptrINS_10FileSystemEERKS3_INS_11SystemClockEE(ptr noundef nonnull align 8 dereferenceable(96) %3, ptr noundef nonnull %4, ptr noundef nonnull align 8 dereferenceable(16) %1, ptr noundef nonnull align 8 dereferenceable(16) %6)
          to label %_ZN7rocksdb19CompositeEnvWrapperC2EPNS_3EnvERKSt10shared_ptrINS_10FileSystemEE.exit unwind label %7

_ZN7rocksdb19CompositeEnvWrapperC2EPNS_3EnvERKSt10shared_ptrINS_10FileSystemEE.exit: ; preds = %.noexc
  store ptr %3, ptr %0, align 8, !tbaa !160
  ret void

7:                                                ; preds = %.noexc, %5, %2
  %8 = landingpad { ptr, i32 }
          cleanup
  tail call void @_ZdlPvm(ptr noundef nonnull %3, i64 noundef 96) #25
  resume { ptr, i32 } %8
}